target datalayout = "e-m:e-p270:32:32-p271:32:32-p272:64:64-i64:64-i128:128-f80:128-n8:16:32:64-S128"
target triple = "x86_64-pc-linux-gnu"

; Function Attrs: nounwind uwtable
define internal void @bn_sqr_recursive(ptr noundef %0, ptr noundef %1, i32 noundef %2, ptr noundef %3) #0 {
  %5 = alloca ptr, align 8
  %6 = alloca ptr, align 8
  %7 = alloca i32, align 4
  %8 = alloca ptr, align 8
  %9 = alloca i32, align 4
  %10 = alloca i32, align 4
  %11 = alloca i32, align 4
  %12 = alloca i64, align 8
  %13 = alloca i64, align 8
  %14 = alloca ptr, align 8
  %15 = alloca i32, align 4
  store ptr %0, ptr %5, align 8, !tbaa !20
  store ptr %1, ptr %6, align 8, !tbaa !20
  store i32 %2, ptr %7, align 4, !tbaa !13
  store ptr %3, ptr %8, align 8, !tbaa !20
  call void @llvm.lifetime.start.p0(i64 4, ptr %9) #4
  %16 = load i32, ptr %7, align 4, !tbaa !13
  %17 = sdiv i32 %16, 2
  store i32 %17, ptr %9, align 4, !tbaa !13
  call void @llvm.lifetime.start.p0(i64 4, ptr %10) #4
  call void @llvm.lifetime.start.p0(i64 4, ptr %11) #4
  call void @llvm.lifetime.start.p0(i64 8, ptr %12) #4
  call void @llvm.lifetime.start.p0(i64 8, ptr %13) #4
  call void @llvm.lifetime.start.p0(i64 8, ptr %14) #4
  %18 = load i32, ptr %7, align 4, !tbaa !13
  %19 = icmp eq i32 %18, 4
  br i1 %19, label %20, label %23

20:                                               ; preds = %4
  %21 = load ptr, ptr %5, align 8, !tbaa !20
  %22 = load ptr, ptr %6, align 8, !tbaa !20
  call void @bn_sqr_comba4(ptr noundef %21, ptr noundef %22)
  store i32 1, ptr %15, align 4
  br label %189

23:                                               ; preds = %4
  %24 = load i32, ptr %7, align 4, !tbaa !13
  %25 = icmp eq i32 %24, 8
  br i1 %25, label %26, label %29

26:                                               ; preds = %23
  %27 = load ptr, ptr %5, align 8, !tbaa !20
  %28 = load ptr, ptr %6, align 8, !tbaa !20
  call void @bn_sqr_comba8(ptr noundef %27, ptr noundef %28)
  store i32 1, ptr %15, align 4
  br label %189

29:                                               ; preds = %23
  br label %30

30:                                               ; preds = %29
  %31 = load i32, ptr %7, align 4, !tbaa !13
  %32 = icmp slt i32 %31, 16
  br i1 %32, label %33, label %38

33:                                               ; preds = %30
  %34 = load ptr, ptr %5, align 8, !tbaa !20
  %35 = load ptr, ptr %6, align 8, !tbaa !20
  %36 = load i32, ptr %7, align 4, !tbaa !13
  %37 = load ptr, ptr %8, align 8, !tbaa !20
  call void @bn_sqr_normal(ptr noundef %34, ptr noundef %35, i32 noundef %36, ptr noundef %37)
  store i32 1, ptr %15, align 4
  br label %189

38:                                               ; preds = %30
  %39 = load ptr, ptr %6, align 8, !tbaa !20
  %40 = load ptr, ptr %6, align 8, !tbaa !20
  %41 = load i32, ptr %9, align 4, !tbaa !13
  %42 = sext i32 %41 to i64
  %43 = getelementptr inbounds i64, ptr %40, i64 %42
  %44 = load i32, ptr %9, align 4, !tbaa !13
  %45 = call i32 @bn_cmp_words(ptr noundef %39, ptr noundef %43, i32 noundef %44)
  store i32 %45, ptr %11, align 4, !tbaa !13
  store i32 0, ptr %10, align 4, !tbaa !13
  %46 = load i32, ptr %11, align 4, !tbaa !13
  %47 = icmp sgt i32 %46, 0
  br i1 %47, label %48, label %57

48:                                               ; preds = %38
  %49 = load ptr, ptr %8, align 8, !tbaa !20
  %50 = load ptr, ptr %6, align 8, !tbaa !20
  %51 = load ptr, ptr %6, align 8, !tbaa !20
  %52 = load i32, ptr %9, align 4, !tbaa !13
  %53 = sext i32 %52 to i64
  %54 = getelementptr inbounds i64, ptr %51, i64 %53
  %55 = load i32, ptr %9, align 4, !tbaa !13
  %56 = call i64 @bn_sub_words(ptr noundef %49, ptr noundef %50, ptr noundef %54, i32 noundef %55)
  br label %71

57:                                               ; preds = %38
  %58 = load i32, ptr %11, align 4, !tbaa !13
  %59 = icmp slt i32 %58, 0
  br i1 %59, label %60, label %69

60:                                               ; preds = %57
  %61 = load ptr, ptr %8, align 8, !tbaa !20
  %62 = load ptr, ptr %6, align 8, !tbaa !20
  %63 = load i32, ptr %9, align 4, !tbaa !13
  %64 = sext i32 %63 to i64
  %65 = getelementptr inbounds i64, ptr %62, i64 %64
  %66 = load ptr, ptr %6, align 8, !tbaa !20
  %67 = load i32, ptr %9, align 4, !tbaa !13
  %68 = call i64 @bn_sub_words(ptr noundef %61, ptr noundef %65, ptr noundef %66, i32 noundef %67)
  br label %70

69:                                               ; preds = %57
  store i32 1, ptr %10, align 4, !tbaa !13
  br label %70

70:                                               ; preds = %69, %60
  br label %71

71:                                               ; preds = %70, %48
  %72 = load ptr, ptr %8, align 8, !tbaa !20
  %73 = load i32, ptr %7, align 4, !tbaa !13
  %74 = mul nsw i32 %73, 2
  %75 = sext i32 %74 to i64
  %76 = getelementptr inbounds i64, ptr %72, i64 %75
  store ptr %76, ptr %14, align 8, !tbaa !20
  %77 = load i32, ptr %10, align 4, !tbaa !13
  %78 = icmp ne i32 %77, 0
  br i1 %78, label %87, label %79

79:                                               ; preds = %71
  %80 = load ptr, ptr %8, align 8, !tbaa !20
  %81 = load i32, ptr %7, align 4, !tbaa !13
  %82 = sext i32 %81 to i64
  %83 = getelementptr inbounds i64, ptr %80, i64 %82
  %84 = load ptr, ptr %8, align 8, !tbaa !20
  %85 = load i32, ptr %9, align 4, !tbaa !13
  %86 = load ptr, ptr %14, align 8, !tbaa !20
  call void @bn_sqr_recursive(ptr noundef %83, ptr noundef %84, i32 noundef %85, ptr noundef %86)
  br label %95

87:                                               ; preds = %71
  %88 = load ptr, ptr %8, align 8, !tbaa !20
  %89 = load i32, ptr %7, align 4, !tbaa !13
  %90 = sext i32 %89 to i64
  %91 = getelementptr inbounds i64, ptr %88, i64 %90
  %92 = load i32, ptr %7, align 4, !tbaa !13
  %93 = sext i32 %92 to i64
  %94 = mul i64 %93, 8
  call void @llvm.memset.p0.i64(ptr align 8 %91, i8 0, i64 %94, i1 false)
  br label %95

95:                                               ; preds = %87, %79
  %96 = load ptr, ptr %5, align 8, !tbaa !20
  %97 = load ptr, ptr %6, align 8, !tbaa !20
  %98 = load i32, ptr %9, align 4, !tbaa !13
  %99 = load ptr, ptr %14, align 8, !tbaa !20
  call void @bn_sqr_recursive(ptr noundef %96, ptr noundef %97, i32 noundef %98, ptr noundef %99)
  %100 = load ptr, ptr %5, align 8, !tbaa !20
  %101 = load i32, ptr %7, align 4, !tbaa !13
  %102 = sext i32 %101 to i64
  %103 = getelementptr inbounds i64, ptr %100, i64 %102
  %104 = load ptr, ptr %6, align 8, !tbaa !20
  %105 = load i32, ptr %9, align 4, !tbaa !13
  %106 = sext i32 %105 to i64
  %107 = getelementptr inbounds i64, ptr %104, i64 %106
  %108 = load i32, ptr %9, align 4, !tbaa !13
  %109 = load ptr, ptr %14, align 8, !tbaa !20
  call void @bn_sqr_recursive(ptr noundef %103, ptr noundef %107, i32 noundef %108, ptr noundef %109)
  %110 = load ptr, ptr %8, align 8, !tbaa !20
  %111 = load ptr, ptr %5, align 8, !tbaa !20
  %112 = load ptr, ptr %5, align 8, !tbaa !20
  %113 = load i32, ptr %7, align 4, !tbaa !13
  %114 = sext i32 %113 to i64
  %115 = getelementptr inbounds i64, ptr %112, i64 %114
  %116 = load i32, ptr %7, align 4, !tbaa !13
  %117 = call i64 @bn_add_words(ptr noundef %110, ptr noundef %111, ptr noundef %115, i32 noundef %116)
  %118 = trunc i64 %117 to i32
  store i32 %118, ptr %11, align 4, !tbaa !13
  %119 = load ptr, ptr %8, align 8, !tbaa !20
  %120 = load i32, ptr %7, align 4, !tbaa !13
  %121 = sext i32 %120 to i64
  %122 = getelementptr inbounds i64, ptr %119, i64 %121
  %123 = load ptr, ptr %8, align 8, !tbaa !20
  %124 = load ptr, ptr %8, align 8, !tbaa !20
  %125 = load i32, ptr %7, align 4, !tbaa !13
  %126 = sext i32 %125 to i64
  %127 = getelementptr inbounds i64, ptr %124, i64 %126
  %128 = load i32, ptr %7, align 4, !tbaa !13
  %129 = call i64 @bn_sub_words(ptr noundef %122, ptr noundef %123, ptr noundef %127, i32 noundef %128)
  %130 = trunc i64 %129 to i32
  %131 = load i32, ptr %11, align 4, !tbaa !13
  %132 = sub nsw i32 %131, %130
  store i32 %132, ptr %11, align 4, !tbaa !13
  %133 = load ptr, ptr %5, align 8, !tbaa !20
  %134 = load i32, ptr %9, align 4, !tbaa !13
  %135 = sext i32 %134 to i64
  %136 = getelementptr inbounds i64, ptr %133, i64 %135
  %137 = load ptr, ptr %5, align 8, !tbaa !20
  %138 = load i32, ptr %9, align 4, !tbaa !13
  %139 = sext i32 %138 to i64
  %140 = getelementptr inbounds i64, ptr %137, i64 %139
  %141 = load ptr, ptr %8, align 8, !tbaa !20
  %142 = load i32, ptr %7, align 4, !tbaa !13
  %143 = sext i32 %142 to i64
  %144 = getelementptr inbounds i64, ptr %141, i64 %143
  %145 = load i32, ptr %7, align 4, !tbaa !13
  %146 = call i64 @bn_add_words(ptr noundef %136, ptr noundef %140, ptr noundef %144, i32 noundef %145)
  %147 = trunc i64 %146 to i32
  %148 = load i32, ptr %11, align 4, !tbaa !13
  %149 = add nsw i32 %148, %147
  store i32 %149, ptr %11, align 4, !tbaa !13
  %150 = load i32, ptr %11, align 4, !tbaa !13
  %151 = icmp ne i32 %150, 0
  br i1 %151, label %152, label %188

152:                                              ; preds = %95
  %153 = load ptr, ptr %5, align 8, !tbaa !20
  %154 = load i32, ptr %9, align 4, !tbaa !13
  %155 = load i32, ptr %7, align 4, !tbaa !13
  %156 = add nsw i32 %154, %155
  %157 = sext i32 %156 to i64
  %158 = getelementptr inbounds i64, ptr %153, i64 %157
  store ptr %158, ptr %14, align 8, !tbaa !20
  %159 = load ptr, ptr %14, align 8, !tbaa !20
  %160 = load i64, ptr %159, align 8, !tbaa !21
  store i64 %160, ptr %13, align 8, !tbaa !21
  %161 = load i64, ptr %13, align 8, !tbaa !21
  %162 = load i32, ptr %11, align 4, !tbaa !13
  %163 = sext i32 %162 to i64
  %164 = add i64 %161, %163
  %165 = and i64 %164, -1
  store i64 %165, ptr %12, align 8, !tbaa !21
  %166 = load i64, ptr %12, align 8, !tbaa !21
  %167 = load ptr, ptr %14, align 8, !tbaa !20
  store i64 %166, ptr %167, align 8, !tbaa !21
  %168 = load i64, ptr %12, align 8, !tbaa !21
  %169 = load i32, ptr %11, align 4, !tbaa !13
  %170 = sext i32 %169 to i64
  %171 = icmp ult i64 %168, %170
  br i1 %171, label %172, label %187

172:                                              ; preds = %152
  br label %173

173:                                              ; preds = %183, %172
  %174 = load ptr, ptr %14, align 8, !tbaa !20
  %175 = getelementptr inbounds nuw i64, ptr %174, i32 1
  store ptr %175, ptr %14, align 8, !tbaa !20
  %176 = load ptr, ptr %14, align 8, !tbaa !20
  %177 = load i64, ptr %176, align 8, !tbaa !21
  store i64 %177, ptr %13, align 8, !tbaa !21
  %178 = load i64, ptr %13, align 8, !tbaa !21
  %179 = add i64 %178, 1
  %180 = and i64 %179, -1
  store i64 %180, ptr %12, align 8, !tbaa !21
  %181 = load i64, ptr %12, align 8, !tbaa !21
  %182 = load ptr, ptr %14, align 8, !tbaa !20
  store i64 %181, ptr %182, align 8, !tbaa !21
  br label %183

183:                                              ; preds = %173
  %184 = load i64, ptr %12, align 8, !tbaa !21
  %185 = icmp eq i64 %184, 0
  br i1 %185, label %173, label %186, !llvm.loop !27

186:                                              ; preds = %183
  br label %187

187:                                              ; preds = %186, %152
  br label %188

188:                                              ; preds = %187, %95
  store i32 0, ptr %15, align 4
  br label %189

189:                                              ; preds = %188, %33, %26, %20
  call void @llvm.lifetime.end.p0(i64 8, ptr %14) #4
  call void @llvm.lifetime.end.p0(i64 8, ptr %13) #4
  call void @llvm.lifetime.end.p0(i64 8, ptr %12) #4
  call void @llvm.lifetime.end.p0(i64 4, ptr %11) #4
  call void @llvm.lifetime.end.p0(i64 4, ptr %10) #4
  call void @llvm.lifetime.end.p0(i64 4, ptr %9) #4
  %190 = load i32, ptr %15, align 4
  switch i32 %190, label %192 [
    i32 0, label %191
    i32 1, label %191
  ]

191:                                              ; preds = %189, %189
  ret void

192:                                              ; preds = %189
  unreachable
}