; Function Attrs: nounwind uwtable
define internal fastcc void @bn_sqr_recursive(ptr noundef %0, ptr noundef %1, i32 noundef range(i32 0, -2147483648) %2, ptr noundef %3) unnamed_addr #0 {
  %5 = lshr i32 %2, 1
  switch i32 %2, label %8 [
    i32 4, label %6
    i32 8, label %7
  ]

6:                                                ; preds = %4
  tail call void @bn_sqr_comba4(ptr noundef %0, ptr noundef %1) #5
  br label %.loopexit

7:                                                ; preds = %4
  tail call void @bn_sqr_comba8(ptr noundef %0, ptr noundef %1) #5
  br label %.loopexit

8:                                                ; preds = %4
  %9 = icmp samesign ult i32 %2, 16
  br i1 %9, label %10, label %11

10:                                               ; preds = %8
  tail call fastcc void @bn_sqr_normal(ptr noundef %0, ptr noundef %1, i32 noundef %2, ptr noundef %3)
  br label %.loopexit

11:                                               ; preds = %8
  %12 = zext nneg i32 %5 to i64
  %13 = getelementptr inbounds nuw i64, ptr %1, i64 %12
  %14 = tail call i32 @bn_cmp_words(ptr noundef %1, ptr noundef %13, i32 noundef %5) #5
  %15 = icmp sgt i32 %14, 0
  br i1 %15, label %16, label %18

16:                                               ; preds = %11
  %17 = tail call i64 @bn_sub_words(ptr noundef %3, ptr noundef %1, ptr noundef %13, i32 noundef %5) #5
  br label %22

18:                                               ; preds = %11
  %19 = icmp slt i32 %14, 0
  br i1 %19, label %20, label %28

20:                                               ; preds = %18
  %21 = tail call i64 @bn_sub_words(ptr noundef %3, ptr noundef %13, ptr noundef %1, i32 noundef %5) #5
  br label %22

22:                                               ; preds = %16, %20
  %23 = shl nuw nsw i32 %2, 1
  %24 = zext nneg i32 %23 to i64
  %25 = getelementptr inbounds nuw i64, ptr %3, i64 %24
  %26 = zext nneg i32 %2 to i64
  %27 = getelementptr inbounds nuw i64, ptr %3, i64 %26
  tail call fastcc void @bn_sqr_recursive(ptr noundef nonnull %27, ptr noundef %3, i32 noundef %5, ptr noundef nonnull %25)
  br label %35

28:                                               ; preds = %18
  %29 = shl nuw nsw i32 %2, 1
  %30 = zext nneg i32 %29 to i64
  %31 = getelementptr inbounds nuw i64, ptr %3, i64 %30
  %32 = zext nneg i32 %2 to i64
  %33 = getelementptr inbounds nuw i64, ptr %3, i64 %32
  %34 = shl nuw nsw i64 %32, 3
  tail call void @llvm.memset.p0.i64(ptr nonnull align 8 %33, i8 0, i64 %34, i1 false)
  br label %35

35:                                               ; preds = %28, %22
  %.pre-phi = phi i64 [ %32, %28 ], [ %26, %22 ]
  %36 = phi ptr [ %31, %28 ], [ %25, %22 ]
  tail call fastcc void @bn_sqr_recursive(ptr noundef %0, ptr noundef %1, i32 noundef %5, ptr noundef nonnull %36)
  %37 = getelementptr inbounds nuw i64, ptr %0, i64 %.pre-phi
  tail call fastcc void @bn_sqr_recursive(ptr noundef nonnull %37, ptr noundef %13, i32 noundef %5, ptr noundef nonnull %36)
  %38 = tail call i64 @bn_add_words(ptr noundef %3, ptr noundef %0, ptr noundef nonnull %37, i32 noundef %2) #5
  %39 = trunc i64 %38 to i32
  %40 = getelementptr inbounds nuw i64, ptr %3, i64 %.pre-phi
  %41 = tail call i64 @bn_sub_words(ptr noundef nonnull %40, ptr noundef %3, ptr noundef nonnull %40, i32 noundef %2) #5
  %42 = trunc i64 %41 to i32
  %43 = sub nsw i32 %39, %42
  %44 = getelementptr inbounds nuw i64, ptr %0, i64 %12
  %45 = tail call i64 @bn_add_words(ptr noundef %44, ptr noundef %44, ptr noundef nonnull %40, i32 noundef %2) #5
  %46 = trunc i64 %45 to i32
  %47 = add nsw i32 %43, %46
  %.not89 = icmp eq i32 %47, 0
  br i1 %.not89, label %.loopexit, label %48

48:                                               ; preds = %35
  %49 = add nuw nsw i32 %5, %2
  %50 = zext nneg i32 %49 to i64
  %51 = getelementptr inbounds nuw i64, ptr %0, i64 %50
  %52 = load i64, ptr %51, align 8, !tbaa !15
  %53 = sext i32 %47 to i64
  %54 = add i64 %52, %53
  store i64 %54, ptr %51, align 8, !tbaa !15
  %55 = icmp ult i64 %54, %53
  br i1 %55, label %.preheader, label %.loopexit

.preheader:                                       ; preds = %48, %.preheader
  %.0 = phi ptr [ %56, %.preheader ], [ %51, %48 ]
  %56 = getelementptr inbounds nuw i8, ptr %.0, i64 8
  %57 = load i64, ptr %56, align 8, !tbaa !15
  %58 = add i64 %57, 1
  store i64 %58, ptr %56, align 8, !tbaa !15
  %59 = icmp eq i64 %58, 0
  br i1 %59, label %.preheader, label %.loopexit, !llvm.loop !21

.loopexit:                                        ; preds = %.preheader, %35, %48, %10, %7, %6
  ret void
}